target datalayout = "e-m:e-p270:32:32-p271:32:32-p272:64:64-i64:64-i128:128-f80:128-n8:16:32:64-S128"
target triple = "x86_64-pc-linux-gnu"

%struct.Curl_cwriter = type { ptr, ptr, ptr, i32 }
%struct.cw_out_ctx = type { %struct.Curl_cwriter, ptr, i8 }
%struct.dynbuf = type { ptr, i64, i64, i64 }
%struct.cw_out_buf = type { ptr, %struct.dynbuf, i32 }

@Curl_cfree = external global ptr, align 8

; Function Attrs: nounwind uwtable
define internal void @cw_out_buf_free(ptr noundef %0) #0 {
  %2 = alloca ptr, align 8
  store ptr %0, ptr %2, align 8, !tbaa !97
  %3 = load ptr, ptr %2, align 8, !tbaa !97
  %4 = icmp ne ptr %3, null
  br i1 %4, label %5, label %10

5:                                                ; preds = %1
  %6 = load ptr, ptr %2, align 8, !tbaa !97
  %7 = getelementptr inbounds nuw %struct.cw_out_buf, ptr %6, i32 0, i32 1
  call void @Curl_dyn_free(ptr noundef %7)
  %8 = load ptr, ptr @Curl_cfree, align 8, !tbaa !100
  %9 = load ptr, ptr %2, align 8, !tbaa !97
  call void %8(ptr noundef %9)
  br label %10

10:                                               ; preds = %5, %1
  ret void
}

; Function Attrs: nounwind uwtable
define internal i32 @cw_out_buf_flush(ptr noundef %0, ptr noundef %1, ptr noundef %2, i1 noundef zeroext %3) #0 {
  %5 = alloca i32, align 4
  %6 = alloca ptr, align 8
  %7 = alloca ptr, align 8
  %8 = alloca ptr, align 8
  %9 = alloca i8, align 1
  %10 = alloca i32, align 4
  %11 = alloca i64, align 8
  %12 = alloca i32, align 4
  store ptr %0, ptr %6, align 8, !tbaa !14
  store ptr %1, ptr %7, align 8, !tbaa !3
  store ptr %2, ptr %8, align 8, !tbaa !97
  %13 = zext i1 %3 to i8
  store i8 %13, ptr %9, align 1, !tbaa !24
  call void @llvm.lifetime.start.p0(i64 4, ptr %10) #3
  store i32 0, ptr %10, align 4, !tbaa !19
  %14 = load ptr, ptr %8, align 8, !tbaa !97
  %15 = getelementptr inbounds nuw %struct.cw_out_buf, ptr %14, i32 0, i32 1
  %16 = call i64 @Curl_dyn_len(ptr noundef %15)
  %17 = icmp ne i64 %16, 0
  br i1 %17, label %18, label %71

18:                                               ; preds = %4
  call void @llvm.lifetime.start.p0(i64 8, ptr %11) #3
  %19 = load ptr, ptr %6, align 8, !tbaa !14
  %20 = load ptr, ptr %7, align 8, !tbaa !3
  %21 = load ptr, ptr %8, align 8, !tbaa !97
  %22 = getelementptr inbounds nuw %struct.cw_out_buf, ptr %21, i32 0, i32 2
  %23 = load i32, ptr %22, align 8, !tbaa !101
  %24 = load i8, ptr %9, align 1, !tbaa !24, !range !26, !noundef !27
  %25 = trunc i8 %24 to i1
  %26 = load ptr, ptr %8, align 8, !tbaa !97
  %27 = getelementptr inbounds nuw %struct.cw_out_buf, ptr %26, i32 0, i32 1
  %28 = call ptr @Curl_dyn_ptr(ptr noundef %27)
  %29 = load ptr, ptr %8, align 8, !tbaa !97
  %30 = getelementptr inbounds nuw %struct.cw_out_buf, ptr %29, i32 0, i32 1
  %31 = call i64 @Curl_dyn_len(ptr noundef %30)
  %32 = call i32 @cw_out_ptr_flush(ptr noundef %19, ptr noundef %20, i32 noundef %23, i1 noundef zeroext %25, ptr noundef %28, i64 noundef %31, ptr noundef %11)
  store i32 %32, ptr %10, align 4, !tbaa !19
  %33 = load i32, ptr %10, align 4, !tbaa !19
  %34 = icmp ne i32 %33, 0
  br i1 %34, label %35, label %37

35:                                               ; preds = %18
  %36 = load i32, ptr %10, align 4, !tbaa !19
  store i32 %36, ptr %5, align 4
  store i32 1, ptr %12, align 4
  br label %68

37:                                               ; preds = %18
  %38 = load i64, ptr %11, align 8, !tbaa !22
  %39 = icmp ne i64 %38, 0
  br i1 %39, label %40, label %67

40:                                               ; preds = %37
  %41 = load i64, ptr %11, align 8, !tbaa !22
  %42 = load ptr, ptr %8, align 8, !tbaa !97
  %43 = getelementptr inbounds nuw %struct.cw_out_buf, ptr %42, i32 0, i32 1
  %44 = call i64 @Curl_dyn_len(ptr noundef %43)
  %45 = icmp eq i64 %41, %44
  br i1 %45, label %46, label %49

46:                                               ; preds = %40
  %47 = load ptr, ptr %8, align 8, !tbaa !97
  %48 = getelementptr inbounds nuw %struct.cw_out_buf, ptr %47, i32 0, i32 1
  call void @Curl_dyn_free(ptr noundef %48)
  br label %66

49:                                               ; preds = %40
  br label %50

50:                                               ; preds = %49
  br label %51

51:                                               ; preds = %50
  br label %52

52:                                               ; preds = %51
  %53 = load ptr, ptr %8, align 8, !tbaa !97
  %54 = getelementptr inbounds nuw %struct.cw_out_buf, ptr %53, i32 0, i32 1
  %55 = load ptr, ptr %8, align 8, !tbaa !97
  %56 = getelementptr inbounds nuw %struct.cw_out_buf, ptr %55, i32 0, i32 1
  %57 = call i64 @Curl_dyn_len(ptr noundef %56)
  %58 = load i64, ptr %11, align 8, !tbaa !22
  %59 = sub i64 %57, %58
  %60 = call i32 @Curl_dyn_tail(ptr noundef %54, i64 noundef %59)
  store i32 %60, ptr %10, align 4, !tbaa !19
  %61 = load i32, ptr %10, align 4, !tbaa !19
  %62 = icmp ne i32 %61, 0
  br i1 %62, label %63, label %65

63:                                               ; preds = %52
  %64 = load i32, ptr %10, align 4, !tbaa !19
  store i32 %64, ptr %5, align 4
  store i32 1, ptr %12, align 4
  br label %68

65:                                               ; preds = %52
  br label %66

66:                                               ; preds = %65, %46
  br label %67

67:                                               ; preds = %66, %37
  store i32 0, ptr %12, align 4
  br label %68

68:                                               ; preds = %67, %63, %35
  call void @llvm.lifetime.end.p0(i64 8, ptr %11) #3
  %69 = load i32, ptr %12, align 4
  switch i32 %69, label %73 [
    i32 0, label %70
  ]

70:                                               ; preds = %68
  br label %71

71:                                               ; preds = %70, %4
  %72 = load i32, ptr %10, align 4, !tbaa !19
  store i32 %72, ptr %5, align 4
  store i32 1, ptr %12, align 4
  br label %73

73:                                               ; preds = %71, %68
  call void @llvm.lifetime.end.p0(i64 4, ptr %10) #3
  %74 = load i32, ptr %5, align 4
  ret i32 %74
}

; Function Attrs: nounwind uwtable
define internal i32 @cw_out_flush_chain(ptr noundef %0, ptr noundef %1, ptr noundef %2, i1 noundef zeroext %3) #0 {
  %5 = alloca i32, align 4
  %6 = alloca ptr, align 8
  %7 = alloca ptr, align 8
  %8 = alloca ptr, align 8
  %9 = alloca i8, align 1
  %10 = alloca ptr, align 8
  %11 = alloca i32, align 4
  %12 = alloca i32, align 4
  %13 = alloca ptr, align 8
  store ptr %0, ptr %6, align 8, !tbaa !14
  store ptr %1, ptr %7, align 8, !tbaa !3
  store ptr %2, ptr %8, align 8, !tbaa !102
  %14 = zext i1 %3 to i8
  store i8 %14, ptr %9, align 1, !tbaa !24
  call void @llvm.lifetime.start.p0(i64 8, ptr %10) #3
  %15 = load ptr, ptr %8, align 8, !tbaa !102
  %16 = load ptr, ptr %15, align 8, !tbaa !97
  store ptr %16, ptr %10, align 8, !tbaa !97
  call void @llvm.lifetime.start.p0(i64 4, ptr %11) #3
  %17 = load ptr, ptr %10, align 8, !tbaa !97
  %18 = icmp ne ptr %17, null
  br i1 %18, label %20, label %19

19:                                               ; preds = %4
  store i32 0, ptr %5, align 4
  store i32 1, ptr %12, align 4
  br label %90

20:                                               ; preds = %4
  %21 = load ptr, ptr %6, align 8, !tbaa !14
  %22 = getelementptr inbounds nuw %struct.cw_out_ctx, ptr %21, i32 0, i32 2
  %23 = load i8, ptr %22, align 8
  %24 = and i8 %23, 1
  %25 = zext i8 %24 to i32
  %26 = icmp ne i32 %25, 0
  br i1 %26, label %27, label %28

27:                                               ; preds = %20
  store i32 0, ptr %5, align 4
  store i32 1, ptr %12, align 4
  br label %90

28:                                               ; preds = %20
  br label %29

29:                                               ; preds = %69, %28
  %30 = load ptr, ptr %10, align 8, !tbaa !97
  %31 = getelementptr inbounds nuw %struct.cw_out_buf, ptr %30, i32 0, i32 0
  %32 = load ptr, ptr %31, align 8, !tbaa !95
  %33 = icmp ne ptr %32, null
  br i1 %33, label %34, label %70

34:                                               ; preds = %29
  call void @llvm.lifetime.start.p0(i64 8, ptr %13) #3
  %35 = load ptr, ptr %10, align 8, !tbaa !97
  %36 = getelementptr inbounds nuw %struct.cw_out_buf, ptr %35, i32 0, i32 0
  store ptr %36, ptr %13, align 8, !tbaa !102
  br label %37

37:                                               ; preds = %43, %34
  %38 = load ptr, ptr %13, align 8, !tbaa !102
  %39 = load ptr, ptr %38, align 8, !tbaa !97
  %40 = getelementptr inbounds nuw %struct.cw_out_buf, ptr %39, i32 0, i32 0
  %41 = load ptr, ptr %40, align 8, !tbaa !95
  %42 = icmp ne ptr %41, null
  br i1 %42, label %43, label %47

43:                                               ; preds = %37
  %44 = load ptr, ptr %13, align 8, !tbaa !102
  %45 = load ptr, ptr %44, align 8, !tbaa !97
  %46 = getelementptr inbounds nuw %struct.cw_out_buf, ptr %45, i32 0, i32 0
  store ptr %46, ptr %13, align 8, !tbaa !102
  br label %37, !llvm.loop !104

47:                                               ; preds = %37
  %48 = load ptr, ptr %6, align 8, !tbaa !14
  %49 = load ptr, ptr %7, align 8, !tbaa !3
  %50 = load ptr, ptr %13, align 8, !tbaa !102
  %51 = load i8, ptr %9, align 1, !tbaa !24, !range !26, !noundef !27
  %52 = trunc i8 %51 to i1
  %53 = call i32 @cw_out_flush_chain(ptr noundef %48, ptr noundef %49, ptr noundef %50, i1 noundef zeroext %52)
  store i32 %53, ptr %11, align 4, !tbaa !19
  %54 = load i32, ptr %11, align 4, !tbaa !19
  %55 = icmp ne i32 %54, 0
  br i1 %55, label %56, label %58

56:                                               ; preds = %47
  %57 = load i32, ptr %11, align 4, !tbaa !19
  store i32 %57, ptr %5, align 4
  store i32 1, ptr %12, align 4
  br label %67

58:                                               ; preds = %47
  %59 = load ptr, ptr %13, align 8, !tbaa !102
  %60 = load ptr, ptr %59, align 8, !tbaa !97
  %61 = icmp ne ptr %60, null
  br i1 %61, label %62, label %66

62:                                               ; preds = %58
  br label %63

63:                                               ; preds = %62
  br label %64

64:                                               ; preds = %63
  br label %65

65:                                               ; preds = %64
  store i32 0, ptr %5, align 4
  store i32 1, ptr %12, align 4
  br label %67

66:                                               ; preds = %58
  store i32 0, ptr %12, align 4
  br label %67

67:                                               ; preds = %66, %65, %56
  call void @llvm.lifetime.end.p0(i64 8, ptr %13) #3
  %68 = load i32, ptr %12, align 4
  switch i32 %68, label %90 [
    i32 0, label %69
  ]

69:                                               ; preds = %67
  br label %29, !llvm.loop !105

70:                                               ; preds = %29
  %71 = load ptr, ptr %6, align 8, !tbaa !14
  %72 = load ptr, ptr %7, align 8, !tbaa !3
  %73 = load ptr, ptr %10, align 8, !tbaa !97
  %74 = load i8, ptr %9, align 1, !tbaa !24, !range !26, !noundef !27
  %75 = trunc i8 %74 to i1
  %76 = call i32 @cw_out_buf_flush(ptr noundef %71, ptr noundef %72, ptr noundef %73, i1 noundef zeroext %75)
  store i32 %76, ptr %11, align 4, !tbaa !19
  %77 = load i32, ptr %11, align 4, !tbaa !19
  %78 = icmp ne i32 %77, 0
  br i1 %78, label %79, label %81

79:                                               ; preds = %70
  %80 = load i32, ptr %11, align 4, !tbaa !19
  store i32 %80, ptr %5, align 4
  store i32 1, ptr %12, align 4
  br label %90

81:                                               ; preds = %70
  %82 = load ptr, ptr %10, align 8, !tbaa !97
  %83 = getelementptr inbounds nuw %struct.cw_out_buf, ptr %82, i32 0, i32 1
  %84 = call i64 @Curl_dyn_len(ptr noundef %83)
  %85 = icmp ne i64 %84, 0
  br i1 %85, label %89, label %86

86:                                               ; preds = %81
  %87 = load ptr, ptr %10, align 8, !tbaa !97
  call void @cw_out_buf_free(ptr noundef %87)
  %88 = load ptr, ptr %8, align 8, !tbaa !102
  store ptr null, ptr %88, align 8, !tbaa !97
  br label %89

89:                                               ; preds = %86, %81
  store i32 0, ptr %5, align 4
  store i32 1, ptr %12, align 4
  br label %90

90:                                               ; preds = %89, %79, %67, %27, %19
  call void @llvm.lifetime.end.p0(i64 4, ptr %11) #3
  call void @llvm.lifetime.end.p0(i64 8, ptr %10) #3
  %91 = load i32, ptr %5, align 4
  ret i32 %91
}