; Function Attrs: nounwind uwtable
define internal fastcc i32 @cw_out_flush_chain(ptr noundef captures(none) %0, ptr noundef %1, ptr noundef captures(none) %2) unnamed_addr #1 {
  %4 = alloca i64, align 8
  %5 = load ptr, ptr %2, align 8, !tbaa !89
  %.not = icmp eq ptr %5, null
  br i1 %.not, label %.thread, label %6

6:                                                ; preds = %3
  %7 = getelementptr inbounds nuw i8, ptr %0, i64 40
  %8 = load i8, ptr %7, align 8
  %9 = and i8 %8, 1
  %.not29 = icmp eq i8 %9, 0
  br i1 %.not29, label %.preheader43, label %.thread

.preheader43:                                     ; preds = %6, %15
  %10 = load ptr, ptr %5, align 8, !tbaa !14
  %.not30 = icmp eq ptr %10, null
  br i1 %.not30, label %17, label %.preheader

.preheader:                                       ; preds = %.preheader43, %.preheader
  %11 = phi ptr [ %12, %.preheader ], [ %10, %.preheader43 ]
  %.0 = phi ptr [ %11, %.preheader ], [ %5, %.preheader43 ]
  %12 = load ptr, ptr %11, align 8, !tbaa !14
  %.not33 = icmp eq ptr %12, null
  br i1 %.not33, label %13, label %.preheader, !llvm.loop !92

13:                                               ; preds = %.preheader
  %14 = tail call fastcc i32 @cw_out_flush_chain(ptr noundef %0, ptr noundef %1, ptr noundef nonnull %.0)
  %.not34 = icmp eq i32 %14, 0
  br i1 %.not34, label %15, label %.thread

15:                                               ; preds = %13
  %16 = load ptr, ptr %.0, align 8, !tbaa !89
  %.not35 = icmp eq ptr %16, null
  br i1 %.not35, label %.preheader43, label %.thread, !llvm.loop !93

17:                                               ; preds = %.preheader43
  %18 = getelementptr inbounds nuw i8, ptr %5, i64 8
  %19 = tail call i64 @Curl_dyn_len(ptr noundef nonnull %18) #5
  %.not.i = icmp eq i64 %19, 0
  br i1 %.not.i, label %cw_out_buf_flush.exit.thread, label %20

20:                                               ; preds = %17
  call void @llvm.lifetime.start.p0(i64 8, ptr nonnull %4) #5
  %21 = getelementptr inbounds nuw i8, ptr %5, i64 40
  %22 = load i32, ptr %21, align 8, !tbaa !88
  %23 = tail call ptr @Curl_dyn_ptr(ptr noundef nonnull %18) #5
  %24 = tail call i64 @Curl_dyn_len(ptr noundef nonnull %18) #5
  %25 = call fastcc i32 @cw_out_ptr_flush(ptr noundef %0, ptr noundef %1, i32 noundef %22, ptr noundef %23, i64 noundef %24, ptr noundef %4)
  %.not25.i = icmp eq i32 %25, 0
  br i1 %.not25.i, label %26, label %cw_out_buf_flush.exit.thread40

26:                                               ; preds = %20
  %27 = load i64, ptr %4, align 8, !tbaa !91
  %.not26.i = icmp eq i64 %27, 0
  br i1 %.not26.i, label %cw_out_buf_flush.exit, label %28

28:                                               ; preds = %26
  %29 = tail call i64 @Curl_dyn_len(ptr noundef nonnull %18) #5
  %30 = icmp eq i64 %27, %29
  br i1 %30, label %31, label %32

31:                                               ; preds = %28
  tail call void @Curl_dyn_free(ptr noundef nonnull %18) #5
  br label %cw_out_buf_flush.exit

32:                                               ; preds = %28
  %33 = tail call i64 @Curl_dyn_len(ptr noundef nonnull %18) #5
  %34 = sub i64 %33, %27
  %35 = tail call i32 @Curl_dyn_tail(ptr noundef nonnull %18, i64 noundef %34) #5
  %.not27.i = icmp eq i32 %35, 0
  br i1 %.not27.i, label %cw_out_buf_flush.exit, label %cw_out_buf_flush.exit.thread40

cw_out_buf_flush.exit.thread40:                   ; preds = %32, %20
  %.119.ph.i.ph = phi i32 [ %25, %20 ], [ %35, %32 ]
  call void @llvm.lifetime.end.p0(i64 8, ptr nonnull %4) #5
  br label %.thread

cw_out_buf_flush.exit:                            ; preds = %26, %31, %32
  call void @llvm.lifetime.end.p0(i64 8, ptr nonnull %4) #5
  br label %cw_out_buf_flush.exit.thread

cw_out_buf_flush.exit.thread:                     ; preds = %17, %cw_out_buf_flush.exit
  %36 = tail call i64 @Curl_dyn_len(ptr noundef nonnull %18) #5
  %.not32 = icmp eq i64 %36, 0
  br i1 %.not32, label %37, label %.thread

37:                                               ; preds = %cw_out_buf_flush.exit.thread
  tail call void @Curl_dyn_free(ptr noundef nonnull %18) #5
  %38 = load ptr, ptr @Curl_cfree, align 8, !tbaa !19
  tail call void %38(ptr noundef nonnull %5) #5
  store ptr null, ptr %2, align 8, !tbaa !89
  br label %.thread

.thread:                                          ; preds = %13, %15, %cw_out_buf_flush.exit.thread40, %cw_out_buf_flush.exit.thread, %37, %6, %3
  %.025 = phi i32 [ 0, %3 ], [ 0, %6 ], [ 0, %37 ], [ 0, %cw_out_buf_flush.exit.thread ], [ %.119.ph.i.ph, %cw_out_buf_flush.exit.thread40 ], [ %14, %13 ], [ 0, %15 ]
  ret i32 %.025
}